target datalayout = "e-m:e-p270:32:32-p271:32:32-p272:64:64-i64:64-i128:128-f80:128-n8:16:32:64-S128"
target triple = "x86_64-pc-linux-gnu"

%class.arith_util = type { ptr, ptr }
%"class.spacer::lemma_expand_bnd_generalizer" = type { %"class.spacer::lemma_generalizer", %"struct.spacer::lemma_expand_bnd_generalizer::stats", ptr, %class.arith_util, %class.vector.26 }
%"class.spacer::lemma_generalizer" = type { ptr, ptr }
%"struct.spacer::lemma_expand_bnd_generalizer::stats" = type { i32, i32, %class.stopwatch }
%class.stopwatch = type <{ %"class.std::chrono::time_point", %"class.std::chrono::duration", i8, [7 x i8] }>
%"class.std::chrono::time_point" = type { %"class.std::chrono::duration" }
%"class.std::chrono::duration" = type { i64 }
%class.vector.26 = type { ptr }
%class.ref = type { ptr }
%class.ptr_vector.70 = type { %class.vector.71 }
%class.vector.71 = type { ptr }
%class.ptr_vector.74 = type { %class.vector.75 }
%class.vector.75 = type { ptr }
%class.ref_vector.80 = type { %class.ref_vector_core.81 }
%class.ref_vector_core.81 = type { %class.ref_manager_wrapper.82, %class.ptr_vector.83 }
%class.ref_manager_wrapper.82 = type { ptr }
%class.ptr_vector.83 = type { %class.vector.84 }
%class.vector.84 = type { ptr }
%class.obj_ref.85 = type { ptr, ptr }
%class.ref.91 = type { ptr }
%"class.spacer::lemma" = type <{ i32, [4 x i8], ptr, %class.obj_ref.85, %class.ref_vector.80, %class.ref_vector.92, %class.ref_vector.92, %class.ref, %class.ref.97, i32, i32, i32, i8, [3 x i8] }>
%class.ref_vector.92 = type { %class.ref_vector_core.93 }
%class.ref_vector_core.93 = type { %class.ref_manager_wrapper.94, %class.ptr_vector.95 }
%class.ref_manager_wrapper.94 = type { ptr }
%class.ptr_vector.95 = type { %class.vector.96 }
%class.vector.96 = type { ptr }
%class.ref.97 = type { ptr }
%"class.spacer::pob" = type { i32, %class.ref, ptr, %class.obj_ref.85, %class.ref_vector.92, %class.obj_ref.85, i64, i32, %class.scoped_ptr.98, %class.ptr_vector.70, %class.ptr_vector.74, i32, %class.obj_ref.85, i32, %class.scoped_ptr.99 }
%class.scoped_ptr.98 = type { ptr }
%class.scoped_ptr.99 = type { ptr }

; Function Attrs: mustprogress nounwind uwtable
define linkonce_odr hidden noundef i32 @_ZN6spacer5lemma8weaknessEv(ptr noundef nonnull align 8 dereferenceable(109) %0) #6 comdat align 2 {
  %2 = alloca ptr, align 8
  store ptr %0, ptr %2, align 8, !tbaa !127
  %3 = load ptr, ptr %2, align 8
  %4 = getelementptr inbounds nuw %"class.spacer::lemma", ptr %3, i32 0, i32 11
  %5 = load i32, ptr %4, align 8
  %6 = lshr i32 %5, 16
  ret i32 %6
}

; Function Attrs: mustprogress nounwind uwtable
define linkonce_odr hidden noundef i32 @_ZNK6spacer5lemma5levelEv(ptr noundef nonnull align 8 dereferenceable(109) %0) #6 comdat align 2 {
  %2 = alloca ptr, align 8
  store ptr %0, ptr %2, align 8, !tbaa !127
  %3 = load ptr, ptr %2, align 8
  %4 = getelementptr inbounds nuw %"class.spacer::lemma", ptr %3, i32 0, i32 9
  %5 = load i32, ptr %4, align 8, !tbaa !233
  ret i32 %5
}

; Function Attrs: mustprogress nounwind uwtable
define linkonce_odr hidden noundef nonnull align 8 dereferenceable(472) ptr @_ZNK6spacer3pob2ptEv(ptr noundef nonnull align 8 dereferenceable(152) %0) #6 comdat align 2 {
  %2 = alloca ptr, align 8
  store ptr %0, ptr %2, align 8, !tbaa !131
  %3 = load ptr, ptr %2, align 8
  %4 = getelementptr inbounds nuw %"class.spacer::pob", ptr %3, i32 0, i32 2
  %5 = load ptr, ptr %4, align 8, !tbaa !217
  ret ptr %5
}

; Function Attrs: mustprogress nounwind uwtable
define linkonce_odr hidden noundef ptr @_ZNK3refIN6spacer3pobEEptEv(ptr noundef nonnull align 8 dereferenceable(8) %0) #6 comdat align 2 {
  %2 = alloca ptr, align 8
  store ptr %0, ptr %2, align 8, !tbaa !128
  %3 = load ptr, ptr %2, align 8
  %4 = getelementptr inbounds nuw %class.ref, ptr %3, i32 0, i32 0
  %5 = load ptr, ptr %4, align 8, !tbaa !130
  ret ptr %5
}

; Function Attrs: mustprogress nounwind uwtable
define linkonce_odr hidden noundef nonnull align 8 dereferenceable(8) ptr @_ZN6spacer5lemma7get_pobEv(ptr noundef nonnull align 8 dereferenceable(109) %0) #6 comdat align 2 {
  %2 = alloca ptr, align 8
  store ptr %0, ptr %2, align 8, !tbaa !127
  %3 = load ptr, ptr %2, align 8
  %4 = getelementptr inbounds nuw %"class.spacer::lemma", ptr %3, i32 0, i32 7
  ret ptr %4
}

; Function Attrs: mustprogress nounwind uwtable
define linkonce_odr hidden noundef ptr @_ZNK3refIN6spacer5lemmaEEptEv(ptr noundef nonnull align 8 dereferenceable(8) %0) #6 comdat align 2 {
  %2 = alloca ptr, align 8
  store ptr %0, ptr %2, align 8, !tbaa !106
  %3 = load ptr, ptr %2, align 8
  %4 = getelementptr inbounds nuw %class.ref.91, ptr %3, i32 0, i32 0
  %5 = load ptr, ptr %4, align 8, !tbaa !124
  ret ptr %5
}

; Function Attrs: mustprogress uwtable
define hidden noundef zeroext i1 @_ZN6spacer28lemma_expand_bnd_generalizer15check_inductiveER3refINS_5lemmaEER10ref_vectorI4expr11ast_managerE(ptr noundef nonnull align 8 dereferenceable(80) %0, ptr noundef nonnull align 8 dereferenceable(8) %1, ptr noundef nonnull align 8 dereferenceable(16) %2) #4 align 2 {
  %4 = alloca ptr, align 8
  %5 = alloca ptr, align 8
  %6 = alloca ptr, align 8
  %7 = alloca i32, align 4
  %8 = alloca ptr, align 8
  %9 = alloca i8, align 1
  store ptr %0, ptr %4, align 8, !tbaa !18
  store ptr %1, ptr %5, align 8, !tbaa !106
  store ptr %2, ptr %6, align 8, !tbaa !109
  %10 = load ptr, ptr %4, align 8
  call void @llvm.lifetime.start.p0(i64 4, ptr %7) #3
  store i32 0, ptr %7, align 4, !tbaa !105
  call void @llvm.lifetime.start.p0(i64 8, ptr %8) #3
  %11 = load ptr, ptr %5, align 8, !tbaa !106
  %12 = call noundef ptr @_ZNK3refIN6spacer5lemmaEEptEv(ptr noundef nonnull align 8 dereferenceable(8) %11)
  %13 = call noundef nonnull align 8 dereferenceable(8) ptr @_ZN6spacer5lemma7get_pobEv(ptr noundef nonnull align 8 dereferenceable(109) %12)
  %14 = call noundef ptr @_ZNK3refIN6spacer3pobEEptEv(ptr noundef nonnull align 8 dereferenceable(8) %13)
  %15 = call noundef nonnull align 8 dereferenceable(472) ptr @_ZNK6spacer3pob2ptEv(ptr noundef nonnull align 8 dereferenceable(152) %14)
  store ptr %15, ptr %8, align 8, !tbaa !104
  call void @llvm.lifetime.start.p0(i64 1, ptr %9) #3
  %16 = load ptr, ptr %8, align 8, !tbaa !104
  %17 = load ptr, ptr %5, align 8, !tbaa !106
  %18 = call noundef ptr @_ZNK3refIN6spacer5lemmaEEptEv(ptr noundef nonnull align 8 dereferenceable(8) %17)
  %19 = call noundef i32 @_ZNK6spacer5lemma5levelEv(ptr noundef nonnull align 8 dereferenceable(109) %18)
  %20 = load ptr, ptr %6, align 8, !tbaa !109
  %21 = load ptr, ptr %5, align 8, !tbaa !106
  %22 = call noundef ptr @_ZNK3refIN6spacer5lemmaEEptEv(ptr noundef nonnull align 8 dereferenceable(8) %21)
  %23 = call noundef i32 @_ZN6spacer5lemma8weaknessEv(ptr noundef nonnull align 8 dereferenceable(109) %22)
  %24 = call noundef zeroext i1 @_ZN6spacer16pred_transformer15check_inductiveEjR10ref_vectorI4expr11ast_managerERjj(ptr noundef nonnull align 8 dereferenceable(472) %16, i32 noundef %19, ptr noundef nonnull align 8 dereferenceable(16) %20, ptr noundef nonnull align 4 dereferenceable(4) %7, i32 noundef %23)
  %25 = zext i1 %24 to i8
  store i8 %25, ptr %9, align 1, !tbaa !119
  %26 = load i8, ptr %9, align 1, !tbaa !119, !range !120, !noundef !121
  %27 = trunc i8 %26 to i1
  br i1 %27, label %28, label %42

28:                                               ; preds = %3
  %29 = getelementptr inbounds nuw %"class.spacer::lemma_expand_bnd_generalizer", ptr %10, i32 0, i32 1
  %30 = getelementptr inbounds nuw %"struct.spacer::lemma_expand_bnd_generalizer::stats", ptr %29, i32 0, i32 1
  %31 = load i32, ptr %30, align 4, !tbaa !212
  %32 = add i32 %31, 1
  store i32 %32, ptr %30, align 4, !tbaa !212
  %33 = load ptr, ptr %5, align 8, !tbaa !106
  %34 = call noundef ptr @_ZNK3refIN6spacer5lemmaEEptEv(ptr noundef nonnull align 8 dereferenceable(8) %33)
  %35 = load ptr, ptr %5, align 8, !tbaa !106
  %36 = call noundef ptr @_ZNK3refIN6spacer5lemmaEEptEv(ptr noundef nonnull align 8 dereferenceable(8) %35)
  %37 = call noundef nonnull align 8 dereferenceable(8) ptr @_ZN6spacer5lemma7get_pobEv(ptr noundef nonnull align 8 dereferenceable(109) %36)
  %38 = load ptr, ptr %6, align 8, !tbaa !109
  call void @_ZN6spacer5lemma11update_cubeERK3refINS_3pobEER10ref_vectorI4expr11ast_managerE(ptr noundef nonnull align 8 dereferenceable(109) %34, ptr noundef nonnull align 8 dereferenceable(8) %37, ptr noundef nonnull align 8 dereferenceable(16) %38)
  %39 = load ptr, ptr %5, align 8, !tbaa !106
  %40 = call noundef ptr @_ZNK3refIN6spacer5lemmaEEptEv(ptr noundef nonnull align 8 dereferenceable(8) %39)
  %41 = load i32, ptr %7, align 4, !tbaa !105
  call void @_ZN6spacer5lemma9set_levelEj(ptr noundef nonnull align 8 dereferenceable(109) %40, i32 noundef %41)
  br label %42

42:                                               ; preds = %28, %3
  %43 = load i8, ptr %9, align 1, !tbaa !119, !range !120, !noundef !121
  %44 = trunc i8 %43 to i1
  call void @llvm.lifetime.end.p0(i64 1, ptr %9) #3
  call void @llvm.lifetime.end.p0(i64 8, ptr %8) #3
  call void @llvm.lifetime.end.p0(i64 4, ptr %7) #3
  ret i1 %44
}