; Function Attrs: mustprogress uwtable
define hidden noundef zeroext i1 @_ZN6spacer28lemma_expand_bnd_generalizer15check_inductiveER3refINS_5lemmaEER10ref_vectorI4expr11ast_managerE(ptr noundef nonnull align 8 captures(none) dereferenceable(80) %0, ptr noundef nonnull readonly align 8 captures(none) dereferenceable(8) %1, ptr noundef nonnull align 8 dereferenceable(16) %2) local_unnamed_addr #3 align 2 {
  %4 = alloca i32, align 4
  call void @llvm.lifetime.start.p0(i64 4, ptr nonnull %4) #21
  store i32 0, ptr %4, align 4, !tbaa !87
  %5 = load ptr, ptr %1, align 8, !tbaa !107
  %6 = getelementptr inbounds nuw i8, ptr %5, i64 80
  %7 = load ptr, ptr %6, align 8, !tbaa !110
  %8 = getelementptr inbounds nuw i8, ptr %7, i64 16
  %9 = load ptr, ptr %8, align 8, !tbaa !196
  %10 = getelementptr inbounds nuw i8, ptr %5, i64 96
  %11 = load i32, ptr %10, align 8, !tbaa !212
  %12 = getelementptr inbounds nuw i8, ptr %5, i64 104
  %13 = load i32, ptr %12, align 8
  %14 = lshr i32 %13, 16
  %15 = call noundef zeroext i1 @_ZN6spacer16pred_transformer15check_inductiveEjR10ref_vectorI4expr11ast_managerERjj(ptr noundef nonnull align 8 dereferenceable(472) %9, i32 noundef %11, ptr noundef nonnull align 8 dereferenceable(16) %2, ptr noundef nonnull align 4 dereferenceable(4) %4, i32 noundef %14)
  br i1 %15, label %16, label %24

16:                                               ; preds = %3
  %17 = getelementptr inbounds nuw i8, ptr %0, i64 20
  %18 = load i32, ptr %17, align 4, !tbaa !219
  %19 = add i32 %18, 1
  store i32 %19, ptr %17, align 4, !tbaa !219
  %20 = load ptr, ptr %1, align 8, !tbaa !107
  %21 = getelementptr inbounds nuw i8, ptr %20, i64 80
  call void @_ZN6spacer5lemma11update_cubeERK3refINS_3pobEER10ref_vectorI4expr11ast_managerE(ptr noundef nonnull align 8 dereferenceable(109) %20, ptr noundef nonnull align 8 dereferenceable(8) %21, ptr noundef nonnull align 8 dereferenceable(16) %2)
  %22 = load ptr, ptr %1, align 8, !tbaa !107
  %23 = load i32, ptr %4, align 4, !tbaa !87
  call void @_ZN6spacer5lemma9set_levelEj(ptr noundef nonnull align 8 dereferenceable(109) %22, i32 noundef %23)
  br label %24

24:                                               ; preds = %16, %3
  call void @llvm.lifetime.end.p0(i64 4, ptr nonnull %4) #21
  ret i1 %15
}